; Function Attrs: mustprogress nounwind uwtable
define hidden void @_ZN7testing8internal2RED2Ev(ptr noundef nonnull align 8 dereferenceable(144) %0) unnamed_addr #5 align 2 personality ptr @__gxx_personality_v0 {
  %2 = getelementptr inbounds nuw i8, ptr %0, i64 8
  %3 = load i8, ptr %2, align 8, !range !8, !noundef !9
  %4 = trunc nuw i8 %3 to i1
  br i1 %4, label %5, label %9

5:                                                ; preds = %1
  %6 = getelementptr inbounds nuw i8, ptr %0, i64 80
  invoke void @regfree(ptr noundef nonnull %6)
          to label %7 unwind label %11

7:                                                ; preds = %5
  %8 = getelementptr inbounds nuw i8, ptr %0, i64 16
  invoke void @regfree(ptr noundef nonnull %8)
          to label %9 unwind label %11

9:                                                ; preds = %7, %1
  %10 = load ptr, ptr %0, align 8
  tail call void @free(ptr noundef %10) #53
  ret void

11:                                               ; preds = %7, %5
  %12 = landingpad { ptr, i32 }
          catch ptr null
  %13 = extractvalue { ptr, i32 } %12, 0
  tail call void @__clang_call_terminate(ptr %13) #58
  unreachable
}